target datalayout = "e-m:e-p270:32:32-p271:32:32-p272:64:64-i64:64-i128:128-f80:128-n8:16:32:64-S128"
target triple = "x86_64-pc-linux-gnu"

%"class.std::unique_ptr" = type { %"struct.std::__uniq_ptr_data" }
%"struct.std::__uniq_ptr_data" = type { %"class.std::__uniq_ptr_impl" }
%"class.std::__uniq_ptr_impl" = type { %"class.std::tuple" }
%"class.std::tuple" = type { %"struct.std::_Tuple_impl" }
%"struct.std::_Tuple_impl" = type { %"struct.std::_Head_base.1" }
%"struct.std::_Head_base.1" = type { ptr }
%"class.std::basic_string_view" = type { i64, ptr }
%"class.evmone::Tracer" = type { ptr, %"class.std::unique_ptr" }
%"class.std::basic_string_view.32" = type { i64, ptr }
%"class.evmone::(anonymous namespace)::InstructionCounter" = type { %"class.evmone::Tracer", %"class.std::stack.39", %"struct.std::array.46", %"class.std::basic_string_view" }
%"class.std::stack.39" = type { %"class.std::deque.40" }
%"class.std::deque.40" = type { %"class.std::_Deque_base.41" }
%"class.std::_Deque_base.41" = type { %"struct.std::_Deque_base<std::basic_string_view<unsigned char, evmc::byte_traits<unsigned char>>, std::allocator<std::basic_string_view<unsigned char, evmc::byte_traits<unsigned char>>>>::_Deque_impl" }
%"struct.std::_Deque_base<std::basic_string_view<unsigned char, evmc::byte_traits<unsigned char>>, std::allocator<std::basic_string_view<unsigned char, evmc::byte_traits<unsigned char>>>>::_Deque_impl" = type { %"struct.std::_Deque_base<std::basic_string_view<unsigned char, evmc::byte_traits<unsigned char>>, std::allocator<std::basic_string_view<unsigned char, evmc::byte_traits<unsigned char>>>>::_Deque_impl_data" }
%"struct.std::_Deque_base<std::basic_string_view<unsigned char, evmc::byte_traits<unsigned char>>, std::allocator<std::basic_string_view<unsigned char, evmc::byte_traits<unsigned char>>>>::_Deque_impl_data" = type { ptr, i64, %"struct.std::_Deque_iterator.45", %"struct.std::_Deque_iterator.45" }
%"struct.std::_Deque_iterator.45" = type { ptr, ptr, ptr, ptr }
%"struct.std::array.46" = type { [256 x i32] }

; Function Attrs: inlinehint mustprogress nounwind uwtable
define linkonce_odr noundef i64 @_ZSt16__deque_buf_sizem(i64 noundef %0) #2 comdat {
  %2 = alloca i64, align 8
  store i64 %0, ptr %2, align 8, !tbaa !22
  %3 = load i64, ptr %2, align 8, !tbaa !22
  %4 = icmp ult i64 %3, 512
  br i1 %4, label %5, label %8

5:                                                ; preds = %1
  %6 = load i64, ptr %2, align 8, !tbaa !22
  %7 = udiv i64 512, %6
  br label %9

8:                                                ; preds = %1
  br label %9

9:                                                ; preds = %8, %5
  %10 = phi i64 [ %7, %5 ], [ 1, %8 ]
  ret i64 %10
}

; Function Attrs: mustprogress nounwind uwtable
define linkonce_odr hidden noundef i64 @_ZNSt15_Deque_iteratorISt17basic_string_viewIhN4evmc11byte_traitsIhEEERS4_PS4_E14_S_buffer_sizeEv() #0 comdat align 2 {
  %1 = call noundef i64 @_ZSt16__deque_buf_sizem(i64 noundef 16)
  ret i64 %1
}

; Function Attrs: mustprogress nounwind uwtable
define linkonce_odr hidden void @_ZNSt15_Deque_iteratorISt17basic_string_viewIhN4evmc11byte_traitsIhEEERS4_PS4_E11_M_set_nodeEPS6_(ptr noundef nonnull align 8 dereferenceable(32) %0, ptr noundef %1) #0 comdat align 2 {
  %3 = alloca ptr, align 8
  %4 = alloca ptr, align 8
  store ptr %0, ptr %3, align 8, !tbaa !237
  store ptr %1, ptr %4, align 8, !tbaa !226
  %5 = load ptr, ptr %3, align 8
  %6 = load ptr, ptr %4, align 8, !tbaa !226
  %7 = getelementptr inbounds nuw %"struct.std::_Deque_iterator.45", ptr %5, i32 0, i32 3
  store ptr %6, ptr %7, align 8, !tbaa !242
  %8 = load ptr, ptr %4, align 8, !tbaa !226
  %9 = load ptr, ptr %8, align 8, !tbaa !140
  %10 = getelementptr inbounds nuw %"struct.std::_Deque_iterator.45", ptr %5, i32 0, i32 1
  store ptr %9, ptr %10, align 8, !tbaa !240
  %11 = getelementptr inbounds nuw %"struct.std::_Deque_iterator.45", ptr %5, i32 0, i32 1
  %12 = load ptr, ptr %11, align 8, !tbaa !240
  %13 = call noundef i64 @_ZNSt15_Deque_iteratorISt17basic_string_viewIhN4evmc11byte_traitsIhEEERS4_PS4_E14_S_buffer_sizeEv() #16
  %14 = getelementptr inbounds %"class.std::basic_string_view.32", ptr %12, i64 %13
  %15 = getelementptr inbounds nuw %"struct.std::_Deque_iterator.45", ptr %5, i32 0, i32 2
  store ptr %14, ptr %15, align 8, !tbaa !241
  ret void
}

; Function Attrs: mustprogress nounwind uwtable
define linkonce_odr hidden void @_ZNSt15_Deque_iteratorISt17basic_string_viewIhN4evmc11byte_traitsIhEEERS4_PS4_EC2ERKS7_(ptr noundef nonnull align 8 dereferenceable(32) %0, ptr noundef nonnull align 8 dereferenceable(32) %1) unnamed_addr #0 comdat align 2 {
  %3 = alloca ptr, align 8
  %4 = alloca ptr, align 8
  store ptr %0, ptr %3, align 8, !tbaa !237
  store ptr %1, ptr %4, align 8, !tbaa !237
  %5 = load ptr, ptr %3, align 8
  %6 = getelementptr inbounds nuw %"struct.std::_Deque_iterator.45", ptr %5, i32 0, i32 0
  %7 = load ptr, ptr %4, align 8, !tbaa !237, !nonnull !8, !align !9
  %8 = getelementptr inbounds nuw %"struct.std::_Deque_iterator.45", ptr %7, i32 0, i32 0
  %9 = load ptr, ptr %8, align 8, !tbaa !239
  store ptr %9, ptr %6, align 8, !tbaa !239
  %10 = getelementptr inbounds nuw %"struct.std::_Deque_iterator.45", ptr %5, i32 0, i32 1
  %11 = load ptr, ptr %4, align 8, !tbaa !237, !nonnull !8, !align !9
  %12 = getelementptr inbounds nuw %"struct.std::_Deque_iterator.45", ptr %11, i32 0, i32 1
  %13 = load ptr, ptr %12, align 8, !tbaa !240
  store ptr %13, ptr %10, align 8, !tbaa !240
  %14 = getelementptr inbounds nuw %"struct.std::_Deque_iterator.45", ptr %5, i32 0, i32 2
  %15 = load ptr, ptr %4, align 8, !tbaa !237, !nonnull !8, !align !9
  %16 = getelementptr inbounds nuw %"struct.std::_Deque_iterator.45", ptr %15, i32 0, i32 2
  %17 = load ptr, ptr %16, align 8, !tbaa !241
  store ptr %17, ptr %14, align 8, !tbaa !241
  %18 = getelementptr inbounds nuw %"struct.std::_Deque_iterator.45", ptr %5, i32 0, i32 3
  %19 = load ptr, ptr %4, align 8, !tbaa !237, !nonnull !8, !align !9
  %20 = getelementptr inbounds nuw %"struct.std::_Deque_iterator.45", ptr %19, i32 0, i32 3
  %21 = load ptr, ptr %20, align 8, !tbaa !242
  store ptr %21, ptr %18, align 8, !tbaa !242
  ret void
}

; Function Attrs: mustprogress nounwind uwtable
define linkonce_odr hidden noundef nonnull align 8 dereferenceable(16) ptr @_ZNKSt15_Deque_iteratorISt17basic_string_viewIhN4evmc11byte_traitsIhEEERS4_PS4_EdeEv(ptr noundef nonnull align 8 dereferenceable(32) %0) #0 comdat align 2 {
  %2 = alloca ptr, align 8
  store ptr %0, ptr %2, align 8, !tbaa !237
  %3 = load ptr, ptr %2, align 8
  %4 = getelementptr inbounds nuw %"struct.std::_Deque_iterator.45", ptr %3, i32 0, i32 0
  %5 = load ptr, ptr %4, align 8, !tbaa !239
  ret ptr %5
}

; Function Attrs: mustprogress nounwind uwtable
define linkonce_odr hidden noundef nonnull align 8 dereferenceable(32) ptr @_ZNSt15_Deque_iteratorISt17basic_string_viewIhN4evmc11byte_traitsIhEEERS4_PS4_EmmEv(ptr noundef nonnull align 8 dereferenceable(32) %0) #0 comdat align 2 {
  %2 = alloca ptr, align 8
  store ptr %0, ptr %2, align 8, !tbaa !237
  %3 = load ptr, ptr %2, align 8
  %4 = getelementptr inbounds nuw %"struct.std::_Deque_iterator.45", ptr %3, i32 0, i32 0
  %5 = load ptr, ptr %4, align 8, !tbaa !239
  %6 = getelementptr inbounds nuw %"struct.std::_Deque_iterator.45", ptr %3, i32 0, i32 1
  %7 = load ptr, ptr %6, align 8, !tbaa !240
  %8 = icmp eq ptr %5, %7
  br i1 %8, label %9, label %16

9:                                                ; preds = %1
  %10 = getelementptr inbounds nuw %"struct.std::_Deque_iterator.45", ptr %3, i32 0, i32 3
  %11 = load ptr, ptr %10, align 8, !tbaa !242
  %12 = getelementptr inbounds ptr, ptr %11, i64 -1
  call void @_ZNSt15_Deque_iteratorISt17basic_string_viewIhN4evmc11byte_traitsIhEEERS4_PS4_E11_M_set_nodeEPS6_(ptr noundef nonnull align 8 dereferenceable(32) %3, ptr noundef %12) #16
  %13 = getelementptr inbounds nuw %"struct.std::_Deque_iterator.45", ptr %3, i32 0, i32 2
  %14 = load ptr, ptr %13, align 8, !tbaa !241
  %15 = getelementptr inbounds nuw %"struct.std::_Deque_iterator.45", ptr %3, i32 0, i32 0
  store ptr %14, ptr %15, align 8, !tbaa !239
  br label %16

16:                                               ; preds = %9, %1
  %17 = getelementptr inbounds nuw %"struct.std::_Deque_iterator.45", ptr %3, i32 0, i32 0
  %18 = load ptr, ptr %17, align 8, !tbaa !239
  %19 = getelementptr inbounds %"class.std::basic_string_view.32", ptr %18, i32 -1
  store ptr %19, ptr %17, align 8, !tbaa !239
  ret ptr %3
}

; Function Attrs: mustprogress nounwind uwtable
define linkonce_odr hidden void @_ZNSt5dequeISt17basic_string_viewIhN4evmc11byte_traitsIhEEESaIS4_EE3endEv(ptr dead_on_unwind noalias writable sret(%"struct.std::_Deque_iterator.45") align 8 %0, ptr noundef nonnull align 8 dereferenceable(80) %1) #0 comdat align 2 {
  %3 = alloca ptr, align 8
  %4 = alloca ptr, align 8
  store ptr %0, ptr %3, align 8
  store ptr %1, ptr %4, align 8, !tbaa !215
  %5 = load ptr, ptr %4, align 8
  %6 = getelementptr inbounds nuw %"class.std::_Deque_base.41", ptr %5, i32 0, i32 0
  %7 = getelementptr inbounds nuw %"struct.std::_Deque_base<std::basic_string_view<unsigned char, evmc::byte_traits<unsigned char>>, std::allocator<std::basic_string_view<unsigned char, evmc::byte_traits<unsigned char>>>>::_Deque_impl_data", ptr %6, i32 0, i32 3
  call void @_ZNSt15_Deque_iteratorISt17basic_string_viewIhN4evmc11byte_traitsIhEEERS4_PS4_EC2ERKS7_(ptr noundef nonnull align 8 dereferenceable(32) %0, ptr noundef nonnull align 8 dereferenceable(32) %7) #16
  ret void
}

; Function Attrs: mustprogress nounwind uwtable
define linkonce_odr hidden noundef nonnull align 4 dereferenceable(4) ptr @_ZNSt14__array_traitsIjLm256EE6_S_refERA256_Kjm(ptr noundef nonnull align 4 dereferenceable(1024) %0, i64 noundef %1) #0 comdat align 2 {
  %3 = alloca ptr, align 8
  %4 = alloca i64, align 8
  store ptr %0, ptr %3, align 8, !tbaa !135
  store i64 %1, ptr %4, align 8, !tbaa !22
  %5 = load ptr, ptr %3, align 8, !tbaa !135, !nonnull !8, !align !139
  %6 = load i64, ptr %4, align 8, !tbaa !22
  %7 = getelementptr inbounds nuw [256 x i32], ptr %5, i64 0, i64 %6
  ret ptr %7
}

; Function Attrs: mustprogress nounwind uwtable
define linkonce_odr hidden noundef nonnull align 8 dereferenceable(16) ptr @_ZNSt5dequeISt17basic_string_viewIhN4evmc11byte_traitsIhEEESaIS4_EE4backEv(ptr noundef nonnull align 8 dereferenceable(80) %0) #0 comdat align 2 {
  %2 = alloca ptr, align 8
  %3 = alloca %"struct.std::_Deque_iterator.45", align 8
  store ptr %0, ptr %2, align 8, !tbaa !215
  %4 = load ptr, ptr %2, align 8
  call void @llvm.lifetime.start.p0(ptr %3) #16
  call void @_ZNSt5dequeISt17basic_string_viewIhN4evmc11byte_traitsIhEEESaIS4_EE3endEv(ptr dead_on_unwind writable sret(%"struct.std::_Deque_iterator.45") align 8 %3, ptr noundef nonnull align 8 dereferenceable(80) %4) #16
  %5 = call noundef nonnull align 8 dereferenceable(32) ptr @_ZNSt15_Deque_iteratorISt17basic_string_viewIhN4evmc11byte_traitsIhEEERS4_PS4_EmmEv(ptr noundef nonnull align 8 dereferenceable(32) %3) #16
  %6 = call noundef nonnull align 8 dereferenceable(16) ptr @_ZNKSt15_Deque_iteratorISt17basic_string_viewIhN4evmc11byte_traitsIhEEERS4_PS4_EdeEv(ptr noundef nonnull align 8 dereferenceable(32) %3) #16
  call void @llvm.lifetime.end.p0(ptr %3) #16
  ret ptr %6
}

; Function Attrs: mustprogress nounwind uwtable
define linkonce_odr hidden noundef nonnull align 4 dereferenceable(4) ptr @_ZNSt5arrayIjLm256EEixEm(ptr noundef nonnull align 4 dereferenceable(1024) %0, i64 noundef %1) #0 comdat align 2 {
  %3 = alloca ptr, align 8
  %4 = alloca i64, align 8
  store ptr %0, ptr %3, align 8, !tbaa !252
  store i64 %1, ptr %4, align 8, !tbaa !22
  %5 = load ptr, ptr %3, align 8
  %6 = getelementptr inbounds nuw %"struct.std::array.46", ptr %5, i32 0, i32 0
  %7 = load i64, ptr %4, align 8, !tbaa !22
  %8 = call noundef nonnull align 4 dereferenceable(4) ptr @_ZNSt14__array_traitsIjLm256EE6_S_refERA256_Kjm(ptr noundef nonnull align 4 dereferenceable(1024) %6, i64 noundef %7) #16
  ret ptr %8
}

; Function Attrs: mustprogress nounwind uwtable
define linkonce_odr hidden noundef nonnull align 1 dereferenceable(1) ptr @_ZNKSt17basic_string_viewIhN4evmc11byte_traitsIhEEEixEm(ptr noundef nonnull align 8 dereferenceable(16) %0, i64 noundef %1) #0 comdat align 2 {
  %3 = alloca ptr, align 8
  %4 = alloca i64, align 8
  store ptr %0, ptr %3, align 8, !tbaa !140
  store i64 %1, ptr %4, align 8, !tbaa !22
  %5 = load ptr, ptr %3, align 8
  %6 = getelementptr inbounds nuw %"class.std::basic_string_view.32", ptr %5, i32 0, i32 1
  %7 = load ptr, ptr %6, align 8, !tbaa !142
  %8 = load i64, ptr %4, align 8, !tbaa !22
  %9 = getelementptr inbounds nuw i8, ptr %7, i64 %8
  ret ptr %9
}

; Function Attrs: mustprogress nounwind uwtable
define linkonce_odr hidden noundef nonnull align 8 dereferenceable(16) ptr @_ZNSt5stackISt17basic_string_viewIhN4evmc11byte_traitsIhEEESt5dequeIS4_SaIS4_EEE3topEv(ptr noundef nonnull align 8 dereferenceable(80) %0) #0 comdat align 2 {
  %2 = alloca ptr, align 8
  store ptr %0, ptr %2, align 8, !tbaa !212
  %3 = load ptr, ptr %2, align 8
  %4 = getelementptr inbounds nuw %"class.std::stack.39", ptr %3, i32 0, i32 0
  %5 = call noundef nonnull align 8 dereferenceable(16) ptr @_ZNSt5dequeISt17basic_string_viewIhN4evmc11byte_traitsIhEEESaIS4_EE4backEv(ptr noundef nonnull align 8 dereferenceable(80) %4) #16
  ret ptr %5
}

; Function Attrs: mustprogress nounwind uwtable
define internal void @_ZN6evmone12_GLOBAL__N_118InstructionCounter20on_instruction_startEjPKN4intx4uintILj256EEEilRKNS_14ExecutionStateE(ptr noundef nonnull align 8 dereferenceable(1136) %0, i32 noundef %1, ptr noundef %2, i32 noundef %3, i64 noundef %4, ptr noundef nonnull align 8 dereferenceable(544) %5) unnamed_addr #0 align 2 {
  %7 = alloca ptr, align 8
  %8 = alloca i32, align 4
  %9 = alloca ptr, align 8
  %10 = alloca i32, align 4
  %11 = alloca i64, align 8
  %12 = alloca ptr, align 8
  %13 = alloca ptr, align 8
  store ptr %0, ptr %7, align 8, !tbaa !30
  store i32 %1, ptr %8, align 4, !tbaa !48
  store ptr %2, ptr %9, align 8, !tbaa !50
  store i32 %3, ptr %10, align 4, !tbaa !48
  store i64 %4, ptr %11, align 8, !tbaa !22
  store ptr %5, ptr %12, align 8, !tbaa !52
  %14 = load ptr, ptr %7, align 8
  call void @llvm.lifetime.start.p0(ptr %13) #16
  %15 = getelementptr inbounds nuw %"class.evmone::(anonymous namespace)::InstructionCounter", ptr %14, i32 0, i32 1
  %16 = call noundef nonnull align 8 dereferenceable(16) ptr @_ZNSt5stackISt17basic_string_viewIhN4evmc11byte_traitsIhEEESt5dequeIS4_SaIS4_EEE3topEv(ptr noundef nonnull align 8 dereferenceable(80) %15)
  store ptr %16, ptr %13, align 8, !tbaa !140
  %17 = getelementptr inbounds nuw %"class.evmone::(anonymous namespace)::InstructionCounter", ptr %14, i32 0, i32 2
  %18 = load ptr, ptr %13, align 8, !tbaa !140, !nonnull !8, !align !9
  %19 = load i32, ptr %8, align 4, !tbaa !48
  %20 = zext i32 %19 to i64
  %21 = call noundef nonnull align 1 dereferenceable(1) ptr @_ZNKSt17basic_string_viewIhN4evmc11byte_traitsIhEEEixEm(ptr noundef nonnull align 8 dereferenceable(16) %18, i64 noundef %20) #16
  %22 = load i8, ptr %21, align 1, !tbaa !58
  %23 = zext i8 %22 to i64
  %24 = call noundef nonnull align 4 dereferenceable(4) ptr @_ZNSt5arrayIjLm256EEixEm(ptr noundef nonnull align 4 dereferenceable(1024) %17, i64 noundef %23) #16
  %25 = load i32, ptr %24, align 4, !tbaa !48
  %26 = add i32 %25, 1
  store i32 %26, ptr %24, align 4, !tbaa !48
  call void @llvm.lifetime.end.p0(ptr %13) #16
  ret void
}